target datalayout = "e-m:e-p270:32:32-p271:32:32-p272:64:64-i64:64-i128:128-f80:128-n8:16:32:64-S128"
target triple = "x86_64-pc-linux-gnu"

%struct.anon = type { i32, [0 x i8] }

@.str = private unnamed_addr constant [32 x i8] c"compressed pglz data is corrupt\00", align 1
@.str.1 = private unnamed_addr constant [20 x i8] c"toast_compression.c\00", align 1
@__func__.pglz_decompress_datum_slice = private unnamed_addr constant [28 x i8] c"pglz_decompress_datum_slice\00", align 1

; Function Attrs: nounwind uwtable
define dso_local ptr @pglz_decompress_datum_slice(ptr noundef %0, i32 noundef %1) #0 {
  %3 = alloca ptr, align 8
  %4 = alloca i32, align 4
  %5 = alloca ptr, align 8
  %6 = alloca i32, align 4
  store ptr %0, ptr %3, align 8
  store i32 %1, ptr %4, align 4
  call void @llvm.lifetime.start.p0(i64 8, ptr %5) #6
  call void @llvm.lifetime.start.p0(i64 4, ptr %6) #6
  %7 = load i32, ptr %4, align 4
  %8 = add i32 %7, 4
  %9 = sext i32 %8 to i64
  %10 = call ptr @palloc(i64 noundef %9)
  store ptr %10, ptr %5, align 8
  %11 = load ptr, ptr %3, align 8
  %12 = getelementptr inbounds nuw i8, ptr %11, i64 8
  %13 = load ptr, ptr %3, align 8
  %14 = getelementptr inbounds nuw %struct.anon, ptr %13, i32 0, i32 0
  %15 = load i32, ptr %14, align 4
  %16 = lshr i32 %15, 2
  %17 = and i32 %16, 1073741823
  %18 = zext i32 %17 to i64
  %19 = sub i64 %18, 8
  %20 = trunc i64 %19 to i32
  %21 = load ptr, ptr %5, align 8
  %22 = getelementptr inbounds nuw %struct.anon, ptr %21, i32 0, i32 1
  %23 = getelementptr inbounds [0 x i8], ptr %22, i64 0, i64 0
  %24 = load i32, ptr %4, align 4
  %25 = call i32 @pglz_decompress(ptr noundef %12, i32 noundef %20, ptr noundef %23, i32 noundef %24, i1 noundef zeroext false)
  store i32 %25, ptr %6, align 4
  %26 = load i32, ptr %6, align 4
  %27 = icmp slt i32 %26, 0
  br i1 %27, label %28, label %40

28:                                               ; preds = %2
  br label %29

29:                                               ; preds = %28
  br i1 true, label %30, label %32

30:                                               ; preds = %29
  %31 = call zeroext i1 @errstart_cold(i32 noundef 21, ptr noundef null) #7
  br i1 %31, label %34, label %37

32:                                               ; preds = %29
  %33 = call zeroext i1 @errstart(i32 noundef 21, ptr noundef null)
  br i1 %33, label %34, label %37

34:                                               ; preds = %32, %30
  %35 = call i32 @errcode(i32 noundef 16779816)
  %36 = call i32 (ptr, ...) @errmsg_internal(ptr noundef @.str)
  call void @errfinish(ptr noundef @.str.1, i32 noundef 126, ptr noundef @__func__.pglz_decompress_datum_slice)
  br label %37

37:                                               ; preds = %34, %32, %30
  unreachable

38:                                               ; No predecessors!
  br label %39

39:                                               ; preds = %38
  br label %40

40:                                               ; preds = %39, %2
  %41 = load i32, ptr %6, align 4
  %42 = add i32 %41, 4
  %43 = shl i32 %42, 2
  %44 = load ptr, ptr %5, align 8
  %45 = getelementptr inbounds nuw %struct.anon, ptr %44, i32 0, i32 0
  store i32 %43, ptr %45, align 4
  %46 = load ptr, ptr %5, align 8
  call void @llvm.lifetime.end.p0(i64 4, ptr %6) #6
  call void @llvm.lifetime.end.p0(i64 8, ptr %5) #6
  ret ptr %46
}