; Function Attrs: nounwind uwtable
define dso_local ptr @pglz_decompress_datum_slice(ptr noundef %0, i32 noundef %1) local_unnamed_addr #0 {
  %3 = add i32 %1, 4
  %4 = sext i32 %3 to i64
  %5 = tail call ptr @palloc(i64 noundef %4) #7
  %6 = getelementptr inbounds nuw i8, ptr %0, i64 8
  %7 = load i32, ptr %0, align 4
  %8 = lshr i32 %7, 2
  %9 = add nsw i32 %8, -8
  %10 = getelementptr inbounds nuw i8, ptr %5, i64 4
  %11 = tail call i32 @pglz_decompress(ptr noundef nonnull %6, i32 noundef %9, ptr noundef nonnull %10, i32 noundef %1, i1 noundef zeroext false) #7
  %12 = icmp slt i32 %11, 0
  br i1 %12, label %13, label %17

13:                                               ; preds = %2
  %14 = tail call zeroext i1 @errstart_cold(i32 noundef 21, ptr noundef null) #8
  tail call void @llvm.assume(i1 %14)
  %15 = tail call i32 @errcode(i32 noundef 16779816) #7
  %16 = tail call i32 (ptr, ...) @errmsg_internal(ptr noundef nonnull @.str) #7
  tail call void @errfinish(ptr noundef nonnull @.str.1, i32 noundef 126, ptr noundef nonnull @__func__.pglz_decompress_datum_slice) #7
  unreachable

17:                                               ; preds = %2
  %18 = shl i32 %11, 2
  %19 = add i32 %18, 16
  store i32 %19, ptr %5, align 4
  ret ptr %5
}